target datalayout = "e-m:e-p270:32:32-p271:32:32-p272:64:64-i64:64-i128:128-f80:128-n8:16:32:64-S128"
target triple = "x86_64-pc-linux-gnu"

%struct.atomic_u_t = type { i32 }
%struct.seq_hooks_t = type { %struct.atomic_zu_t, [5 x %struct.atomic_zu_t] }
%struct.atomic_zu_t = type { i64 }
%struct.hooks_internal_s = type { %struct.hooks_s, i8 }
%struct.hooks_s = type { ptr, ptr, ptr, ptr }

@nhooks = internal global %struct.atomic_u_t zeroinitializer, align 4
@hooks = internal global [4 x %struct.seq_hooks_t] zeroinitializer, align 16

; Function Attrs: alwaysinline nounwind uwtable
define internal void @atomic_fence(i32 noundef %0) #4 {
  %2 = alloca i32, align 4
  store i32 %0, ptr %2, align 4, !tbaa !13
  %3 = load i32, ptr %2, align 4, !tbaa !13
  %4 = call i32 @atomic_enum_to_builtin(i32 noundef %3)
  switch i32 %4, label %9 [
    i32 1, label %5
    i32 2, label %5
    i32 3, label %6
    i32 4, label %7
    i32 5, label %8
  ]

5:                                                ; preds = %1, %1
  fence acquire
  br label %9

6:                                                ; preds = %1
  fence release
  br label %9

7:                                                ; preds = %1
  fence acq_rel
  br label %9

8:                                                ; preds = %1
  fence seq_cst
  br label %9

9:                                                ; preds = %8, %7, %6, %5, %1
  ret void
}

; Function Attrs: alwaysinline nounwind uwtable
define internal i64 @atomic_load_zu(ptr noundef %0, i32 noundef %1) #4 {
  %3 = alloca ptr, align 8
  %4 = alloca i32, align 4
  %5 = alloca i64, align 8
  store ptr %0, ptr %3, align 8, !tbaa !10
  store i32 %1, ptr %4, align 4, !tbaa !13
  call void @llvm.lifetime.start.p0(i64 8, ptr %5) #9
  %6 = load ptr, ptr %3, align 8, !tbaa !10
  %7 = getelementptr inbounds nuw %struct.atomic_zu_t, ptr %6, i32 0, i32 0
  %8 = load i32, ptr %4, align 4, !tbaa !13
  %9 = call i32 @atomic_enum_to_builtin(i32 noundef %8)
  switch i32 %9, label %10 [
    i32 1, label %12
    i32 2, label %12
    i32 5, label %14
  ]

10:                                               ; preds = %2
  %11 = load atomic i64, ptr %7 monotonic, align 8
  store i64 %11, ptr %5, align 8
  br label %16

12:                                               ; preds = %2, %2
  %13 = load atomic i64, ptr %7 acquire, align 8
  store i64 %13, ptr %5, align 8
  br label %16

14:                                               ; preds = %2
  %15 = load atomic i64, ptr %7 seq_cst, align 8
  store i64 %15, ptr %5, align 8
  br label %16

16:                                               ; preds = %14, %12, %10
  %17 = load i64, ptr %5, align 8, !tbaa !23
  call void @llvm.lifetime.end.p0(i64 8, ptr %5) #9
  ret i64 %17
}

; Function Attrs: alwaysinline nounwind uwtable
define internal i32 @atomic_enum_to_builtin(i32 noundef %0) #4 {
  %2 = alloca i32, align 4
  %3 = alloca i32, align 4
  store i32 %0, ptr %3, align 4, !tbaa !13
  %4 = load i32, ptr %3, align 4, !tbaa !13
  switch i32 %4, label %10 [
    i32 0, label %5
    i32 1, label %6
    i32 2, label %7
    i32 3, label %8
    i32 4, label %9
  ]

5:                                                ; preds = %1
  store i32 0, ptr %2, align 4
  br label %12

6:                                                ; preds = %1
  store i32 2, ptr %2, align 4
  br label %12

7:                                                ; preds = %1
  store i32 3, ptr %2, align 4
  br label %12

8:                                                ; preds = %1
  store i32 4, ptr %2, align 4
  br label %12

9:                                                ; preds = %1
  store i32 5, ptr %2, align 4
  br label %12

10:                                               ; preds = %1
  br label %11

11:                                               ; preds = %10
  unreachable

12:                                               ; preds = %5, %6, %7, %8, %9
  %13 = load i32, ptr %2, align 4
  ret i32 %13
}

; Function Attrs: inlinehint nounwind uwtable
define internal zeroext i1 @seq_try_load_hooks(ptr noundef %0, ptr noundef %1) #2 {
  %3 = alloca i1, align 1
  %4 = alloca ptr, align 8
  %5 = alloca ptr, align 8
  %6 = alloca [5 x i64], align 16
  %7 = alloca i64, align 8
  %8 = alloca i32, align 4
  %9 = alloca i64, align 8
  %10 = alloca i64, align 8
  store ptr %0, ptr %4, align 8, !tbaa !31
  store ptr %1, ptr %5, align 8, !tbaa !10
  call void @llvm.lifetime.start.p0(i64 40, ptr %6) #9
  call void @llvm.lifetime.start.p0(i64 8, ptr %7) #9
  %11 = load ptr, ptr %5, align 8, !tbaa !10
  %12 = getelementptr inbounds nuw %struct.seq_hooks_t, ptr %11, i32 0, i32 0
  %13 = call i64 @atomic_load_zu(ptr noundef %12, i32 noundef 1)
  store i64 %13, ptr %7, align 8, !tbaa !23
  %14 = load i64, ptr %7, align 8, !tbaa !23
  %15 = urem i64 %14, 2
  %16 = icmp ne i64 %15, 0
  br i1 %16, label %17, label %18

17:                                               ; preds = %2
  store i1 false, ptr %3, align 1
  store i32 1, ptr %8, align 4
  br label %46

18:                                               ; preds = %2
  call void @llvm.lifetime.start.p0(i64 8, ptr %9) #9
  store i64 0, ptr %9, align 8, !tbaa !23
  br label %19

19:                                               ; preds = %31, %18
  %20 = load i64, ptr %9, align 8, !tbaa !23
  %21 = icmp ult i64 %20, 5
  br i1 %21, label %23, label %22

22:                                               ; preds = %19
  store i32 2, ptr %8, align 4
  call void @llvm.lifetime.end.p0(i64 8, ptr %9) #9
  br label %34

23:                                               ; preds = %19
  %24 = load ptr, ptr %5, align 8, !tbaa !10
  %25 = getelementptr inbounds nuw %struct.seq_hooks_t, ptr %24, i32 0, i32 1
  %26 = load i64, ptr %9, align 8, !tbaa !23
  %27 = getelementptr inbounds nuw [5 x %struct.atomic_zu_t], ptr %25, i64 0, i64 %26
  %28 = call i64 @atomic_load_zu(ptr noundef %27, i32 noundef 0)
  %29 = load i64, ptr %9, align 8, !tbaa !23
  %30 = getelementptr inbounds nuw [5 x i64], ptr %6, i64 0, i64 %29
  store i64 %28, ptr %30, align 8, !tbaa !23
  br label %31

31:                                               ; preds = %23
  %32 = load i64, ptr %9, align 8, !tbaa !23
  %33 = add i64 %32, 1
  store i64 %33, ptr %9, align 8, !tbaa !23
  br label %19

34:                                               ; preds = %22
  call void @atomic_fence(i32 noundef 1)
  call void @llvm.lifetime.start.p0(i64 8, ptr %10) #9
  %35 = load ptr, ptr %5, align 8, !tbaa !10
  %36 = getelementptr inbounds nuw %struct.seq_hooks_t, ptr %35, i32 0, i32 0
  %37 = call i64 @atomic_load_zu(ptr noundef %36, i32 noundef 0)
  store i64 %37, ptr %10, align 8, !tbaa !23
  %38 = load i64, ptr %7, align 8, !tbaa !23
  %39 = load i64, ptr %10, align 8, !tbaa !23
  %40 = icmp ne i64 %38, %39
  br i1 %40, label %41, label %42

41:                                               ; preds = %34
  store i1 false, ptr %3, align 1
  store i32 1, ptr %8, align 4
  br label %45

42:                                               ; preds = %34
  %43 = load ptr, ptr %4, align 8, !tbaa !31
  %44 = getelementptr inbounds [5 x i64], ptr %6, i64 0, i64 0
  call void @llvm.memcpy.p0.p0.i64(ptr align 8 %43, ptr align 16 %44, i64 40, i1 false)
  store i1 true, ptr %3, align 1
  store i32 1, ptr %8, align 4
  br label %45

45:                                               ; preds = %42, %41
  call void @llvm.lifetime.end.p0(i64 8, ptr %10) #9
  br label %46

46:                                               ; preds = %45, %17
  call void @llvm.lifetime.end.p0(i64 8, ptr %7) #9
  call void @llvm.lifetime.end.p0(i64 40, ptr %6) #9
  %47 = load i1, ptr %3, align 1
  ret i1 %47
}

; Function Attrs: alwaysinline nounwind uwtable
define internal i32 @atomic_load_u(ptr noundef %0, i32 noundef %1) #4 {
  %3 = alloca ptr, align 8
  %4 = alloca i32, align 4
  %5 = alloca i32, align 4
  store ptr %0, ptr %3, align 8, !tbaa !10
  store i32 %1, ptr %4, align 4, !tbaa !13
  call void @llvm.lifetime.start.p0(i64 4, ptr %5) #9
  %6 = load ptr, ptr %3, align 8, !tbaa !10
  %7 = getelementptr inbounds nuw %struct.atomic_u_t, ptr %6, i32 0, i32 0
  %8 = load i32, ptr %4, align 4, !tbaa !13
  %9 = call i32 @atomic_enum_to_builtin(i32 noundef %8)
  switch i32 %9, label %10 [
    i32 1, label %12
    i32 2, label %12
    i32 5, label %14
  ]

10:                                               ; preds = %2
  %11 = load atomic i32, ptr %7 monotonic, align 4
  store i32 %11, ptr %5, align 4
  br label %16

12:                                               ; preds = %2, %2
  %13 = load atomic i32, ptr %7 acquire, align 4
  store i32 %13, ptr %5, align 4
  br label %16

14:                                               ; preds = %2
  %15 = load atomic i32, ptr %7 seq_cst, align 4
  store i32 %15, ptr %5, align 4
  br label %16

16:                                               ; preds = %14, %12, %10
  %17 = load i32, ptr %5, align 4, !tbaa !13
  call void @llvm.lifetime.end.p0(i64 4, ptr %5) #9
  ret i32 %17
}

; Function Attrs: nounwind uwtable
define void @duckdb_je_hook_invoke_alloc(i32 noundef %0, ptr noundef %1, i64 noundef %2, ptr noundef %3) #0 {
  %5 = alloca i32, align 4
  %6 = alloca ptr, align 8
  %7 = alloca i64, align 8
  %8 = alloca ptr, align 8
  %9 = alloca ptr, align 8
  %10 = alloca i32, align 4
  %11 = alloca %struct.hooks_internal_s, align 8
  %12 = alloca i32, align 4
  %13 = alloca i8, align 1
  %14 = alloca ptr, align 8
  store i32 %0, ptr %5, align 4, !tbaa !13
  store ptr %1, ptr %6, align 8, !tbaa !10
  store i64 %2, ptr %7, align 8, !tbaa !23
  store ptr %3, ptr %8, align 8, !tbaa !25
  %15 = call i32 @atomic_load_u(ptr noundef @nhooks, i32 noundef 0)
  %16 = icmp eq i32 %15, 0
  %17 = xor i1 %16, true
  %18 = xor i1 %17, true
  %19 = zext i1 %18 to i32
  %20 = sext i32 %19 to i64
  %21 = call i64 @llvm.expect.i64(i64 %20, i64 1)
  %22 = icmp ne i64 %21, 0
  br i1 %22, label %23, label %24

23:                                               ; preds = %4
  br label %76

24:                                               ; preds = %4
  call void @llvm.lifetime.start.p0(i64 8, ptr %9) #9
  %25 = call ptr @hook_reentrantp()
  store ptr %25, ptr %9, align 8, !tbaa !27
  %26 = load ptr, ptr %9, align 8, !tbaa !27
  %27 = load i8, ptr %26, align 1, !tbaa !15, !range !20, !noundef !21
  %28 = trunc i8 %27 to i1
  br i1 %28, label %29, label %30

29:                                               ; preds = %24
  store i32 1, ptr %10, align 4
  br label %74

30:                                               ; preds = %24
  %31 = load ptr, ptr %9, align 8, !tbaa !27
  store i8 1, ptr %31, align 1, !tbaa !15
  call void @llvm.lifetime.start.p0(i64 40, ptr %11) #9
  call void @llvm.lifetime.start.p0(i64 4, ptr %12) #9
  store i32 0, ptr %12, align 4, !tbaa !13
  br label %32

32:                                               ; preds = %69, %30
  %33 = load i32, ptr %12, align 4, !tbaa !13
  %34 = icmp slt i32 %33, 4
  br i1 %34, label %36, label %35

35:                                               ; preds = %32
  store i32 2, ptr %10, align 4
  call void @llvm.lifetime.end.p0(i64 4, ptr %12) #9
  br label %72

36:                                               ; preds = %32
  call void @llvm.lifetime.start.p0(i64 1, ptr %13) #9
  %37 = load i32, ptr %12, align 4, !tbaa !13
  %38 = sext i32 %37 to i64
  %39 = getelementptr inbounds [4 x %struct.seq_hooks_t], ptr @hooks, i64 0, i64 %38
  %40 = call zeroext i1 @seq_try_load_hooks(ptr noundef %11, ptr noundef %39)
  %41 = zext i1 %40 to i8
  store i8 %41, ptr %13, align 1, !tbaa !15
  %42 = load i8, ptr %13, align 1, !tbaa !15, !range !20, !noundef !21
  %43 = trunc i8 %42 to i1
  br i1 %43, label %45, label %44

44:                                               ; preds = %36
  store i32 4, ptr %10, align 4
  br label %66

45:                                               ; preds = %36
  %46 = getelementptr inbounds nuw %struct.hooks_internal_s, ptr %11, i32 0, i32 1
  %47 = load i8, ptr %46, align 8, !tbaa !17, !range !20, !noundef !21
  %48 = trunc i8 %47 to i1
  br i1 %48, label %50, label %49

49:                                               ; preds = %45
  store i32 4, ptr %10, align 4
  br label %66

50:                                               ; preds = %45
  call void @llvm.lifetime.start.p0(i64 8, ptr %14) #9
  %51 = getelementptr inbounds nuw %struct.hooks_internal_s, ptr %11, i32 0, i32 0
  %52 = getelementptr inbounds nuw %struct.hooks_s, ptr %51, i32 0, i32 0
  %53 = load ptr, ptr %52, align 8, !tbaa !29
  store ptr %53, ptr %14, align 8, !tbaa !10
  %54 = load ptr, ptr %14, align 8, !tbaa !10
  %55 = icmp ne ptr %54, null
  br i1 %55, label %56, label %65

56:                                               ; preds = %50
  %57 = load ptr, ptr %14, align 8, !tbaa !10
  %58 = getelementptr inbounds nuw %struct.hooks_internal_s, ptr %11, i32 0, i32 0
  %59 = getelementptr inbounds nuw %struct.hooks_s, ptr %58, i32 0, i32 3
  %60 = load ptr, ptr %59, align 8, !tbaa !30
  %61 = load i32, ptr %5, align 4, !tbaa !13
  %62 = load ptr, ptr %6, align 8, !tbaa !10
  %63 = load i64, ptr %7, align 8, !tbaa !23
  %64 = load ptr, ptr %8, align 8, !tbaa !25
  call void %57(ptr noundef %60, i32 noundef %61, ptr noundef %62, i64 noundef %63, ptr noundef %64)
  br label %65

65:                                               ; preds = %56, %50
  call void @llvm.lifetime.end.p0(i64 8, ptr %14) #9
  store i32 0, ptr %10, align 4
  br label %66

66:                                               ; preds = %65, %49, %44
  call void @llvm.lifetime.end.p0(i64 1, ptr %13) #9
  %67 = load i32, ptr %10, align 4
  switch i32 %67, label %77 [
    i32 0, label %68
    i32 4, label %69
  ]

68:                                               ; preds = %66
  br label %69

69:                                               ; preds = %68, %66
  %70 = load i32, ptr %12, align 4, !tbaa !13
  %71 = add nsw i32 %70, 1
  store i32 %71, ptr %12, align 4, !tbaa !13
  br label %32

72:                                               ; preds = %35
  %73 = load ptr, ptr %9, align 8, !tbaa !27
  store i8 0, ptr %73, align 1, !tbaa !15
  call void @llvm.lifetime.end.p0(i64 40, ptr %11) #9
  store i32 0, ptr %10, align 4
  br label %74

74:                                               ; preds = %72, %29
  call void @llvm.lifetime.end.p0(i64 8, ptr %9) #9
  %75 = load i32, ptr %10, align 4
  switch i32 %75, label %77 [
    i32 0, label %76
    i32 1, label %76
  ]

76:                                               ; preds = %23, %74, %74
  ret void

77:                                               ; preds = %74, %66
  unreachable
}