; Function Attrs: nounwind uwtable
define void @duckdb_je_hook_invoke_alloc(i32 noundef %0, ptr noundef %1, i64 noundef %2, ptr noundef %3) local_unnamed_addr #0 {
atomic_load_u.exit:
  %4 = alloca [5 x i64], align 16
  %5 = load atomic i32, ptr @nhooks.0 monotonic, align 4
  %6 = icmp eq i32 %5, 0
  br i1 %6, label %29, label %7, !prof !16

7:                                                ; preds = %atomic_load_u.exit
  %8 = tail call fastcc ptr @hook_reentrantp()
  %9 = load i8, ptr %8, align 1, !tbaa !17, !range !19, !noundef !20
  %10 = trunc nuw i8 %9 to i1
  br i1 %10, label %29, label %11

11:                                               ; preds = %7
  store i8 1, ptr %8, align 1, !tbaa !17
  %.sroa.415.0..sroa_idx = getelementptr inbounds nuw i8, ptr %4, i64 24
  %.sroa.5.0..sroa_idx = getelementptr inbounds nuw i8, ptr %4, i64 32
  br label %13

12:                                               ; preds = %28
  store i8 0, ptr %8, align 1, !tbaa !17
  br label %29

13:                                               ; preds = %11, %28
  %indvars.iv = phi i64 [ 0, %11 ], [ %indvars.iv.next, %28 ]
  %14 = getelementptr inbounds nuw [4 x %struct.seq_hooks_t], ptr @hooks, i64 0, i64 %indvars.iv
  call void @llvm.lifetime.start.p0(i64 40, ptr nonnull %4) #6
  %15 = load atomic i64, ptr %14 acquire, align 16
  %16 = and i64 %15, 1
  %.not.i = icmp eq i64 %16, 0
  br i1 %.not.i, label %.preheader.i, label %seq_try_load_hooks.exit.thread

.preheader.i:                                     ; preds = %13
  %17 = getelementptr inbounds nuw i8, ptr %14, i64 8
  br label %20

18:                                               ; preds = %20
  fence acquire
  %19 = load atomic i64, ptr %14 monotonic, align 16
  %.not12.i = icmp eq i64 %15, %19
  br i1 %.not12.i, label %25, label %seq_try_load_hooks.exit.thread

20:                                               ; preds = %20, %.preheader.i
  %.01113.i = phi i64 [ 0, %.preheader.i ], [ %24, %20 ]
  %21 = getelementptr inbounds nuw [5 x %struct.atomic_zu_t], ptr %17, i64 0, i64 %.01113.i
  %22 = load atomic i64, ptr %21 monotonic, align 8
  %23 = getelementptr inbounds nuw [5 x i64], ptr %4, i64 0, i64 %.01113.i
  store i64 %22, ptr %23, align 8, !tbaa !15
  %24 = add nuw nsw i64 %.01113.i, 1
  %exitcond.not.i = icmp eq i64 %24, 5
  br i1 %exitcond.not.i, label %18, label %20

seq_try_load_hooks.exit.thread:                   ; preds = %13, %18
  call void @llvm.lifetime.end.p0(i64 40, ptr nonnull %4) #6
  br label %28

25:                                               ; preds = %18
  %.sroa.0.0.copyload = load ptr, ptr %4, align 16
  %.sroa.415.0.copyload = load ptr, ptr %.sroa.415.0..sroa_idx, align 8
  %.sroa.5.0.copyload = load i8, ptr %.sroa.5.0..sroa_idx, align 16
  call void @llvm.lifetime.end.p0(i64 40, ptr nonnull %4) #6
  %26 = trunc nuw i8 %.sroa.5.0.copyload to i1
  %.not = icmp ne ptr %.sroa.0.0.copyload, null
  %or.cond.not = select i1 %26, i1 %.not, i1 false
  br i1 %or.cond.not, label %27, label %28

27:                                               ; preds = %25
  tail call void %.sroa.0.0.copyload(ptr noundef %.sroa.415.0.copyload, i32 noundef %0, ptr noundef %1, i64 noundef %2, ptr noundef %3) #6
  br label %28

28:                                               ; preds = %seq_try_load_hooks.exit.thread, %27, %25
  %indvars.iv.next = add nuw nsw i64 %indvars.iv, 1
  %exitcond.not = icmp eq i64 %indvars.iv.next, 4
  br i1 %exitcond.not, label %12, label %13

29:                                               ; preds = %12, %7, %atomic_load_u.exit
  ret void
}